; Function Attrs: nounwind sspstrong uwtable
define internal fastcc i64 @dump_result(ptr noundef nonnull %0) unnamed_addr #0 {
  %2 = getelementptr inbounds nuw i8, ptr %0, i64 96
  %3 = load i64, ptr %2, align 8, !tbaa !16
  %.not.i = icmp eq i64 %3, 0
  br i1 %.not.i, label %dump_flush.exit, label %4

4:                                                ; preds = %1
  %5 = getelementptr inbounds nuw i8, ptr %0, i64 24
  %6 = load ptr, ptr %5, align 8, !tbaa !23
  %.not24.i = icmp eq ptr %6, null
  br i1 %.not24.i, label %17, label %7

7:                                                ; preds = %4
  %8 = getelementptr inbounds nuw i8, ptr %0, i64 104
  %9 = tail call i64 @fwrite(ptr noundef nonnull %8, i64 noundef 1, i64 noundef %3, ptr noundef nonnull %6)
  %10 = load i64, ptr %2, align 8, !tbaa !16
  %11 = icmp ult i64 %9, %10
  br i1 %11, label %12, label %.sink.split.i

12:                                               ; preds = %7
  %13 = getelementptr inbounds nuw i8, ptr %8, i64 %9
  %14 = sub nuw i64 %10, %9
  tail call void @llvm.memmove.p0.p0.i64(ptr noundef nonnull align 1 %8, ptr noundef nonnull align 1 %13, i64 noundef %14, i1 noundef false) #12
  %15 = load i64, ptr %2, align 8, !tbaa !16
  %16 = sub i64 %15, %9
  br label %.sink.split.i

17:                                               ; preds = %4
  %18 = getelementptr inbounds nuw i8, ptr %0, i64 16
  %19 = load i64, ptr %18, align 8, !tbaa !24
  %.not25.i = icmp eq i64 %19, 0
  br i1 %.not25.i, label %.sink.split.i, label %20

20:                                               ; preds = %17
  %21 = getelementptr inbounds nuw i8, ptr %0, i64 104
  %22 = tail call i64 @rb_str_cat(i64 noundef %19, ptr noundef nonnull %21, i64 noundef %3) #12
  br label %.sink.split.i

.sink.split.i:                                    ; preds = %20, %17, %12, %7
  %.sink.i = phi i64 [ %16, %12 ], [ 0, %7 ], [ 0, %17 ], [ 0, %20 ]
  store i64 %.sink.i, ptr %2, align 8, !tbaa !16
  br label %dump_flush.exit

dump_flush.exit:                                  ; preds = %1, %.sink.split.i
  %23 = getelementptr inbounds nuw i8, ptr %0, i64 24
  %24 = load ptr, ptr %23, align 8, !tbaa !23
  %.not = icmp eq ptr %24, null
  br i1 %.not, label %27, label %25

25:                                               ; preds = %dump_flush.exit
  %26 = tail call i32 @fflush(ptr noundef nonnull %24)
  br label %27

27:                                               ; preds = %25, %dump_flush.exit
  %28 = getelementptr inbounds nuw i8, ptr %0, i64 16
  %29 = load i64, ptr %28, align 8, !tbaa !24
  %.not8 = icmp eq i64 %29, 0
  br i1 %.not8, label %30, label %32

30:                                               ; preds = %27
  %31 = load i64, ptr %0, align 8, !tbaa !15
  br label %32

32:                                               ; preds = %27, %30
  %.0 = phi i64 [ %31, %30 ], [ %29, %27 ]
  ret i64 %.0
}